; Function Attrs: mustprogress uwtable
define internal noundef ptr @_ZL18camellia_ctx_allocv() #0 {
  %1 = tail call noalias dereferenceable_or_null(276) ptr @calloc(i64 noundef 1, i64 noundef 276) #4
  %2 = icmp eq ptr %1, null
  br i1 %2, label %4, label %3

3:                                                ; preds = %0
  tail call void @mbedtls_camellia_init(ptr noundef nonnull %1)
  br label %4

4:                                                ; preds = %0, %3
  ret ptr %1
}